target datalayout = "e-m:e-p270:32:32-p271:32:32-p272:64:64-i64:64-i128:128-f80:128-n8:16:32:64-S128"
target triple = "x86_64-pc-linux-gnu"

%struct.LogicalRepWorker = type { i32, i64, i8, i16, ptr, i32, i32, i32, i32, i8, i64, i8, ptr, i32, i8, i64, i64, i64, i64, i64 }

@MyLogicalRepWorker = external global ptr, align 8

; Function Attrs: inlinehint nounwind uwtable
define internal ptr @DatumGetPointer(i64 noundef %0) #5 {
  %2 = alloca i64, align 8
  store i64 %0, ptr %2, align 8
  %3 = load i64, ptr %2, align 8
  %4 = inttoptr i64 %3 to ptr
  ret ptr %4
}

; Function Attrs: nounwind uwtable
define internal void @pa_shutdown(i32 noundef %0, i64 noundef %1) #0 {
  %3 = alloca i32, align 4
  %4 = alloca i64, align 8
  store i32 %0, ptr %3, align 4
  store i64 %1, ptr %4, align 8
  %5 = load ptr, ptr @MyLogicalRepWorker, align 8
  %6 = getelementptr inbounds nuw %struct.LogicalRepWorker, ptr %5, i32 0, i32 13
  %7 = load i32, ptr %6, align 8
  %8 = call i32 @SendProcSignal(i32 noundef %7, i32 noundef 6, i32 noundef -1)
  %9 = load i64, ptr %4, align 8
  %10 = call ptr @DatumGetPointer(i64 noundef %9)
  call void @dsm_detach(ptr noundef %10)
  ret void
}