; Function Attrs: nounwind uwtable
define internal void @pa_shutdown(i32 %0, i64 noundef %1) #0 {
  %3 = load ptr, ptr @MyLogicalRepWorker, align 8
  %4 = getelementptr inbounds nuw i8, ptr %3, i64 80
  %5 = load i32, ptr %4, align 8
  %6 = tail call i32 @SendProcSignal(i32 noundef %5, i32 noundef 6, i32 noundef -1) #10
  %7 = inttoptr i64 %1 to ptr
  tail call void @dsm_detach(ptr noundef %7) #10
  ret void
}